; Function Attrs: mustprogress nofree norecurse nosync nounwind willreturn memory(argmem: readwrite) uwtable
define internal fastcc range(i32 -4, 1) i32 @fdt_splice_struct_(ptr noundef %0, ptr noundef %1, i32 noundef %2, i32 noundef %3) unnamed_addr #3 {
  %5 = getelementptr inbounds nuw i8, ptr %0, i64 12
  %6 = load i8, ptr %5, align 1, !tbaa !3
  %7 = zext i8 %6 to i32
  %8 = shl nuw i32 %7, 24
  %9 = getelementptr inbounds nuw i8, ptr %0, i64 13
  %10 = load i8, ptr %9, align 1, !tbaa !3
  %11 = zext i8 %10 to i32
  %12 = shl nuw nsw i32 %11, 16
  %13 = or disjoint i32 %12, %8
  %14 = getelementptr inbounds nuw i8, ptr %0, i64 14
  %15 = load i8, ptr %14, align 1, !tbaa !3
  %16 = zext i8 %15 to i32
  %17 = shl nuw nsw i32 %16, 8
  %18 = or disjoint i32 %13, %17
  %19 = getelementptr inbounds nuw i8, ptr %0, i64 15
  %20 = load i8, ptr %19, align 1, !tbaa !3
  %21 = zext i8 %20 to i32
  %22 = or disjoint i32 %18, %21
  %23 = getelementptr inbounds nuw i8, ptr %0, i64 32
  %24 = load i8, ptr %23, align 1, !tbaa !3
  %25 = zext i8 %24 to i32
  %26 = shl nuw i32 %25, 24
  %27 = getelementptr inbounds nuw i8, ptr %0, i64 33
  %28 = load i8, ptr %27, align 1, !tbaa !3
  %29 = zext i8 %28 to i32
  %30 = shl nuw nsw i32 %29, 16
  %31 = or disjoint i32 %30, %26
  %32 = getelementptr inbounds nuw i8, ptr %0, i64 34
  %33 = load i8, ptr %32, align 1, !tbaa !3
  %34 = zext i8 %33 to i32
  %35 = shl nuw nsw i32 %34, 8
  %36 = or disjoint i32 %31, %35
  %37 = getelementptr inbounds nuw i8, ptr %0, i64 35
  %38 = load i8, ptr %37, align 1, !tbaa !3
  %39 = zext i8 %38 to i32
  %40 = or disjoint i32 %36, %39
  %41 = add i32 %40, %22
  %42 = sext i32 %41 to i64
  %43 = getelementptr inbounds i8, ptr %0, i64 %42
  %44 = sext i32 %2 to i64
  %45 = getelementptr inbounds i8, ptr %1, i64 %44
  %46 = icmp slt i32 %2, 0
  %47 = icmp ugt ptr %45, %43
  %or.cond.i = select i1 %46, i1 true, i1 %47
  %48 = icmp ult ptr %1, %0
  %or.cond32.i = or i1 %48, %or.cond.i
  br i1 %or.cond32.i, label %fdt_splice_.exit.thread, label %49

49:                                               ; preds = %4
  %50 = sub nsw i64 0, %44
  %51 = getelementptr inbounds i8, ptr %43, i64 %50
  %52 = sext i32 %3 to i64
  %53 = getelementptr inbounds i8, ptr %51, i64 %52
  %54 = icmp ult ptr %53, %0
  br i1 %54, label %fdt_splice_.exit.thread, label %55

55:                                               ; preds = %49
  %56 = getelementptr inbounds nuw i8, ptr %0, i64 4
  %57 = load i8, ptr %56, align 1, !tbaa !3
  %58 = zext i8 %57 to i64
  %59 = shl nuw nsw i64 %58, 24
  %60 = getelementptr inbounds nuw i8, ptr %0, i64 5
  %61 = load i8, ptr %60, align 1, !tbaa !3
  %62 = zext i8 %61 to i64
  %63 = shl nuw nsw i64 %62, 16
  %64 = or disjoint i64 %63, %59
  %65 = getelementptr inbounds nuw i8, ptr %0, i64 6
  %66 = load i8, ptr %65, align 1, !tbaa !3
  %67 = zext i8 %66 to i64
  %68 = shl nuw nsw i64 %67, 8
  %69 = or disjoint i64 %64, %68
  %70 = getelementptr inbounds nuw i8, ptr %0, i64 7
  %71 = load i8, ptr %70, align 1, !tbaa !3
  %72 = zext i8 %71 to i64
  %73 = or disjoint i64 %69, %72
  %74 = getelementptr inbounds nuw i8, ptr %0, i64 %73
  %75 = icmp ugt ptr %53, %74
  br i1 %75, label %fdt_splice_.exit.thread, label %76

76:                                               ; preds = %55
  %77 = getelementptr inbounds i8, ptr %1, i64 %52
  %78 = ptrtoint ptr %43 to i64
  %79 = ptrtoint ptr %1 to i64
  %80 = add i64 %44, %79
  %81 = sub i64 %78, %80
  tail call void @llvm.memmove.p0.p0.i64(ptr align 1 %77, ptr align 1 %45, i64 %81, i1 false)
  %82 = sub nsw i32 %3, %2
  %83 = getelementptr inbounds nuw i8, ptr %0, i64 36
  %84 = load i8, ptr %83, align 1, !tbaa !3
  %85 = zext i8 %84 to i32
  %86 = shl nuw i32 %85, 24
  %87 = getelementptr inbounds nuw i8, ptr %0, i64 37
  %88 = load i8, ptr %87, align 1, !tbaa !3
  %89 = zext i8 %88 to i32
  %90 = shl nuw nsw i32 %89, 16
  %91 = or disjoint i32 %90, %86
  %92 = getelementptr inbounds nuw i8, ptr %0, i64 38
  %93 = load i8, ptr %92, align 1, !tbaa !3
  %94 = zext i8 %93 to i32
  %95 = shl nuw nsw i32 %94, 8
  %96 = or disjoint i32 %91, %95
  %97 = getelementptr inbounds nuw i8, ptr %0, i64 39
  %98 = load i8, ptr %97, align 1, !tbaa !3
  %99 = zext i8 %98 to i32
  %100 = or disjoint i32 %96, %99
  %101 = add i32 %100, %82
  %rev.i.i = tail call noundef i32 @llvm.bswap.i32(i32 %101)
  store i32 %rev.i.i, ptr %83, align 4, !tbaa !16
  %102 = load i8, ptr %5, align 1, !tbaa !3
  %103 = zext i8 %102 to i32
  %104 = shl nuw i32 %103, 24
  %105 = load i8, ptr %9, align 1, !tbaa !3
  %106 = zext i8 %105 to i32
  %107 = shl nuw nsw i32 %106, 16
  %108 = or disjoint i32 %107, %104
  %109 = load i8, ptr %14, align 1, !tbaa !3
  %110 = zext i8 %109 to i32
  %111 = shl nuw nsw i32 %110, 8
  %112 = or disjoint i32 %108, %111
  %113 = load i8, ptr %19, align 1, !tbaa !3
  %114 = zext i8 %113 to i32
  %115 = or disjoint i32 %112, %114
  %116 = add i32 %115, %82
  %rev.i.i14 = tail call noundef i32 @llvm.bswap.i32(i32 %116)
  store i32 %rev.i.i14, ptr %5, align 4, !tbaa !14
  br label %fdt_splice_.exit.thread

fdt_splice_.exit.thread:                          ; preds = %55, %49, %4, %76
  %.0 = phi i32 [ 0, %76 ], [ -3, %55 ], [ -4, %49 ], [ -4, %4 ]
  ret i32 %.0
}